target datalayout = "e-m:e-p270:32:32-p271:32:32-p272:64:64-i64:64-i128:128-f80:128-n8:16:32:64-S128"
target triple = "x86_64-pc-linux-gnu"

%struct.expert_field = type { i32, i32 }

@hf_hdr_name_value = internal global i32 0, align 4
@ei_wsp_oversized_uintvar = internal global %struct.expert_field zeroinitializer, align 4
@ei_wsp_header_invalid_value = internal global %struct.expert_field zeroinitializer, align 4
@hf_hdr_encoding_version = internal global i32 0, align 4
@ett_encoding_version = internal global i32 0, align 4
@.str.845 = private unnamed_addr constant [6 x i8] c"%u.%u\00", align 1
@.str.1173 = private unnamed_addr constant [17 x i8] c"Encoding-version\00", align 1
@.str.1174 = private unnamed_addr constant [13 x i8] c"code-page=%u\00", align 1
@.str.1175 = private unnamed_addr constant [5 x i8] c": %s\00", align 1

; Function Attrs: null_pointer_is_valid sspstrong uwtable
define internal i32 @wkh_encoding_version(ptr noundef %0, ptr noundef %1, i32 noundef %2, ptr noundef %3) #1 {
  %5 = alloca ptr, align 8
  %6 = alloca ptr, align 8
  %7 = alloca i32, align 4
  %8 = alloca ptr, align 8
  %9 = alloca i8, align 1
  %10 = alloca ptr, align 8
  %11 = alloca ptr, align 8
  %12 = alloca i32, align 4
  %13 = alloca i8, align 1
  %14 = alloca i32, align 4
  %15 = alloca i32, align 4
  %16 = alloca i32, align 4
  %17 = alloca ptr, align 8
  %18 = alloca ptr, align 8
  %19 = alloca i32, align 4
  %20 = alloca i32, align 4
  %21 = alloca i32, align 4
  store ptr %0, ptr %5, align 8
  store ptr %1, ptr %6, align 8
  store i32 %2, ptr %7, align 4
  store ptr %3, ptr %8, align 8
  call void @llvm.lifetime.start.p0(i64 1, ptr %9) #8
  store i8 0, ptr %9, align 1
  call void @llvm.lifetime.start.p0(i64 8, ptr %10) #8
  call void @llvm.lifetime.start.p0(i64 8, ptr %11) #8
  call void @llvm.lifetime.start.p0(i64 4, ptr %12) #8
  %22 = load i32, ptr %7, align 4
  %23 = add i32 %22, 1
  store i32 %23, ptr %12, align 4
  call void @llvm.lifetime.start.p0(i64 1, ptr %13) #8
  %24 = load ptr, ptr %6, align 8
  %25 = load i32, ptr %12, align 4
  %26 = call zeroext i8 @tvb_get_uint8(ptr noundef %24, i32 noundef %25)
  store i8 %26, ptr %13, align 1
  call void @llvm.lifetime.start.p0(i64 4, ptr %14) #8
  %27 = load i32, ptr %12, align 4
  store i32 %27, ptr %14, align 4
  call void @llvm.lifetime.start.p0(i64 4, ptr %15) #8
  call void @llvm.lifetime.start.p0(i64 4, ptr %16) #8
  call void @llvm.lifetime.start.p0(i64 8, ptr %17) #8
  store ptr null, ptr %17, align 8
  call void @llvm.lifetime.start.p0(i64 8, ptr %18) #8
  store ptr null, ptr %18, align 8
  call void @llvm.lifetime.start.p0(i64 4, ptr %19) #8
  call void @llvm.lifetime.start.p0(i64 4, ptr %20) #8
  call void @llvm.lifetime.start.p0(i64 4, ptr %21) #8
  %28 = load ptr, ptr %5, align 8
  %29 = load ptr, ptr %6, align 8
  %30 = load i32, ptr %7, align 4
  %31 = load i32, ptr %14, align 4
  %32 = load i32, ptr %7, align 4
  %33 = sub i32 %31, %32
  %34 = load i32, ptr @ett_encoding_version, align 4
  %35 = call ptr @proto_tree_add_subtree(ptr noundef %28, ptr noundef %29, i32 noundef %30, i32 noundef %33, i32 noundef %34, ptr noundef %11, ptr noundef @.str.1173)
  store ptr %35, ptr %10, align 8
  %36 = load ptr, ptr %10, align 8
  %37 = load i32, ptr @hf_hdr_name_value, align 4
  %38 = load ptr, ptr %6, align 8
  %39 = load i32, ptr %7, align 4
  %40 = call ptr @proto_tree_add_item(ptr noundef %36, i32 noundef %37, ptr noundef %38, i32 noundef %39, i32 noundef 1, i32 noundef 0)
  %41 = load i8, ptr %13, align 1
  %42 = zext i8 %41 to i32
  %43 = and i32 %42, 128
  %44 = icmp ne i32 %43, 0
  br i1 %44, label %45, label %66

45:                                               ; preds = %4
  %46 = load i32, ptr %14, align 4
  %47 = add i32 %46, 1
  store i32 %47, ptr %14, align 4
  %48 = load i8, ptr %13, align 1
  %49 = zext i8 %48 to i32
  %50 = and i32 %49, 127
  store i32 %50, ptr %20, align 4
  %51 = call ptr @wmem_packet_scope()
  %52 = load i32, ptr %20, align 4
  %53 = lshr i32 %52, 4
  %54 = load i32, ptr %20, align 4
  %55 = and i32 %54, 15
  %56 = call noalias ptr (ptr, ptr, ...) @wmem_strdup_printf(ptr noundef %51, ptr noundef @.str.845, i32 noundef %53, i32 noundef %55)
  store ptr %56, ptr %17, align 8
  %57 = load ptr, ptr %5, align 8
  %58 = load i32, ptr @hf_hdr_encoding_version, align 4
  %59 = load ptr, ptr %6, align 8
  %60 = load i32, ptr %7, align 4
  %61 = load i32, ptr %14, align 4
  %62 = load i32, ptr %7, align 4
  %63 = sub i32 %61, %62
  %64 = load ptr, ptr %17, align 8
  %65 = call ptr @proto_tree_add_string(ptr noundef %57, i32 noundef %58, ptr noundef %59, i32 noundef %60, i32 noundef %63, ptr noundef %64)
  store i8 1, ptr %9, align 1
  br label %195

66:                                               ; preds = %4
  %67 = load i8, ptr %13, align 1
  %68 = zext i8 %67 to i32
  %69 = icmp eq i32 %68, 0
  br i1 %69, label %74, label %70

70:                                               ; preds = %66
  %71 = load i8, ptr %13, align 1
  %72 = zext i8 %71 to i32
  %73 = icmp sge i32 %72, 32
  br i1 %73, label %74, label %91

74:                                               ; preds = %70, %66
  %75 = call ptr @wmem_packet_scope()
  %76 = load ptr, ptr %6, align 8
  %77 = load i32, ptr %12, align 4
  %78 = call ptr @tvb_get_stringz_enc(ptr noundef %75, ptr noundef %76, i32 noundef %77, ptr noundef %15, i32 noundef 0)
  store ptr %78, ptr %17, align 8
  %79 = load i32, ptr %12, align 4
  %80 = load i32, ptr %15, align 4
  %81 = add i32 %79, %80
  store i32 %81, ptr %14, align 4
  %82 = load ptr, ptr %5, align 8
  %83 = load i32, ptr @hf_hdr_encoding_version, align 4
  %84 = load ptr, ptr %6, align 8
  %85 = load i32, ptr %7, align 4
  %86 = load i32, ptr %14, align 4
  %87 = load i32, ptr %7, align 4
  %88 = sub i32 %86, %87
  %89 = load ptr, ptr %17, align 8
  %90 = call ptr @proto_tree_add_string(ptr noundef %82, i32 noundef %83, ptr noundef %84, i32 noundef %85, i32 noundef %88, ptr noundef %89)
  store i8 1, ptr %9, align 1
  br label %194

91:                                               ; preds = %70
  %92 = load i8, ptr %13, align 1
  %93 = zext i8 %92 to i32
  %94 = icmp eq i32 %93, 31
  br i1 %94, label %95, label %103

95:                                               ; preds = %91
  %96 = load ptr, ptr %6, align 8
  %97 = load i32, ptr %12, align 4
  %98 = add i32 %97, 1
  %99 = load ptr, ptr %8, align 8
  %100 = call i32 @tvb_get_uintvar(ptr noundef %96, i32 noundef %98, ptr noundef %16, ptr noundef %99, ptr noundef @ei_wsp_oversized_uintvar)
  store i32 %100, ptr %15, align 4
  %101 = load i32, ptr %16, align 4
  %102 = add i32 %101, 1
  store i32 %102, ptr %16, align 4
  br label %108

103:                                              ; preds = %91
  %104 = load ptr, ptr %6, align 8
  %105 = load i32, ptr %14, align 4
  %106 = call zeroext i8 @tvb_get_uint8(ptr noundef %104, i32 noundef %105)
  %107 = zext i8 %106 to i32
  store i32 %107, ptr %15, align 4
  store i32 1, ptr %16, align 4
  br label %108

108:                                              ; preds = %103, %95
  %109 = load i32, ptr %16, align 4
  %110 = load i32, ptr %15, align 4
  %111 = add i32 %109, %110
  %112 = load i32, ptr %14, align 4
  %113 = add i32 %112, %111
  store i32 %113, ptr %14, align 4
  %114 = load i32, ptr %12, align 4
  %115 = load i32, ptr %16, align 4
  %116 = add i32 %114, %115
  store i32 %116, ptr %19, align 4
  %117 = load ptr, ptr %6, align 8
  %118 = load i32, ptr %19, align 4
  %119 = call zeroext i8 @tvb_get_uint8(ptr noundef %117, i32 noundef %118)
  %120 = zext i8 %119 to i32
  store i32 %120, ptr %20, align 4
  %121 = load i32, ptr %20, align 4
  %122 = and i32 %121, 128
  %123 = icmp ne i32 %122, 0
  br i1 %123, label %124, label %193

124:                                              ; preds = %108
  %125 = call ptr @wmem_packet_scope()
  %126 = load i32, ptr %20, align 4
  %127 = and i32 %126, 127
  %128 = call noalias ptr (ptr, ptr, ...) @wmem_strdup_printf(ptr noundef %125, ptr noundef @.str.1174, i32 noundef %127)
  store ptr %128, ptr %17, align 8
  %129 = load ptr, ptr %5, align 8
  %130 = load i32, ptr @hf_hdr_encoding_version, align 4
  %131 = load ptr, ptr %6, align 8
  %132 = load i32, ptr %7, align 4
  %133 = load i32, ptr %14, align 4
  %134 = load i32, ptr %7, align 4
  %135 = sub i32 %133, %134
  %136 = load ptr, ptr %17, align 8
  %137 = call ptr @proto_tree_add_string(ptr noundef %129, i32 noundef %130, ptr noundef %131, i32 noundef %132, i32 noundef %135, ptr noundef %136)
  store ptr %137, ptr %18, align 8
  %138 = load i32, ptr %19, align 4
  %139 = add i32 %138, 1
  store i32 %139, ptr %19, align 4
  store i8 1, ptr %9, align 1
  %140 = load i32, ptr %19, align 4
  %141 = load i32, ptr %14, align 4
  %142 = icmp ult i32 %140, %141
  br i1 %142, label %143, label %192

143:                                              ; preds = %124
  %144 = load ptr, ptr %6, align 8
  %145 = load i32, ptr %19, align 4
  %146 = call zeroext i8 @tvb_get_uint8(ptr noundef %144, i32 noundef %145)
  %147 = zext i8 %146 to i32
  store i32 %147, ptr %20, align 4
  store i8 1, ptr %9, align 1
  %148 = load i32, ptr %20, align 4
  %149 = and i32 %148, 128
  %150 = icmp ne i32 %149, 0
  br i1 %150, label %151, label %160

151:                                              ; preds = %143
  store i32 1, ptr %21, align 4
  %152 = load i32, ptr %20, align 4
  %153 = and i32 %152, 127
  store i32 %153, ptr %20, align 4
  %154 = call ptr @wmem_packet_scope()
  %155 = load i32, ptr %20, align 4
  %156 = lshr i32 %155, 4
  %157 = load i32, ptr %20, align 4
  %158 = and i32 %157, 15
  %159 = call noalias ptr (ptr, ptr, ...) @wmem_strdup_printf(ptr noundef %154, ptr noundef @.str.845, i32 noundef %156, i32 noundef %158)
  store ptr %159, ptr %17, align 8
  br label %185

160:                                              ; preds = %143
  %161 = load ptr, ptr %6, align 8
  %162 = load i32, ptr %19, align 4
  %163 = call zeroext i8 @tvb_get_uint8(ptr noundef %161, i32 noundef %162)
  %164 = zext i8 %163 to i32
  %165 = icmp eq i32 %164, 0
  br i1 %165, label %178, label %166

166:                                              ; preds = %160
  %167 = load ptr, ptr %6, align 8
  %168 = load i32, ptr %19, align 4
  %169 = call zeroext i8 @tvb_get_uint8(ptr noundef %167, i32 noundef %168)
  %170 = zext i8 %169 to i32
  %171 = icmp sge i32 %170, 32
  br i1 %171, label %172, label %183

172:                                              ; preds = %166
  %173 = load ptr, ptr %6, align 8
  %174 = load i32, ptr %19, align 4
  %175 = call zeroext i8 @tvb_get_uint8(ptr noundef %173, i32 noundef %174)
  %176 = zext i8 %175 to i32
  %177 = icmp sle i32 %176, 127
  br i1 %177, label %178, label %183

178:                                              ; preds = %172, %160
  %179 = call ptr @wmem_packet_scope()
  %180 = load ptr, ptr %6, align 8
  %181 = load i32, ptr %19, align 4
  %182 = call ptr @tvb_get_stringz_enc(ptr noundef %179, ptr noundef %180, i32 noundef %181, ptr noundef %21, i32 noundef 0)
  store ptr %182, ptr %17, align 8
  store i8 1, ptr %9, align 1
  br label %184

183:                                              ; preds = %172, %166
  store i32 0, ptr %21, align 4
  store ptr null, ptr %17, align 8
  store i8 0, ptr %9, align 1
  br label %184

184:                                              ; preds = %183, %178
  br label %185

185:                                              ; preds = %184, %151
  %186 = load i8, ptr %9, align 1, !range !6, !noundef !7
  %187 = trunc i8 %186 to i1
  br i1 %187, label %188, label %191

188:                                              ; preds = %185
  %189 = load ptr, ptr %18, align 8
  %190 = load ptr, ptr %17, align 8
  call void (ptr, ptr, ...) @proto_item_append_text(ptr noundef %189, ptr noundef @.str.1175, ptr noundef %190)
  br label %191

191:                                              ; preds = %188, %185
  br label %192

192:                                              ; preds = %191, %124
  br label %193

193:                                              ; preds = %192, %108
  br label %194

194:                                              ; preds = %193, %74
  br label %195

195:                                              ; preds = %194, %45
  %196 = load i8, ptr %9, align 1, !range !6, !noundef !7
  %197 = trunc i8 %196 to i1
  br i1 %197, label %202, label %198

198:                                              ; preds = %195
  %199 = load ptr, ptr %8, align 8
  %200 = load ptr, ptr %11, align 8
  %201 = call ptr @expert_add_info(ptr noundef %199, ptr noundef %200, ptr noundef @ei_wsp_header_invalid_value)
  br label %202

202:                                              ; preds = %198, %195
  %203 = load i32, ptr %14, align 4
  call void @llvm.lifetime.end.p0(i64 4, ptr %21) #8
  call void @llvm.lifetime.end.p0(i64 4, ptr %20) #8
  call void @llvm.lifetime.end.p0(i64 4, ptr %19) #8
  call void @llvm.lifetime.end.p0(i64 8, ptr %18) #8
  call void @llvm.lifetime.end.p0(i64 8, ptr %17) #8
  call void @llvm.lifetime.end.p0(i64 4, ptr %16) #8
  call void @llvm.lifetime.end.p0(i64 4, ptr %15) #8
  call void @llvm.lifetime.end.p0(i64 4, ptr %14) #8
  call void @llvm.lifetime.end.p0(i64 1, ptr %13) #8
  call void @llvm.lifetime.end.p0(i64 4, ptr %12) #8
  call void @llvm.lifetime.end.p0(i64 8, ptr %11) #8
  call void @llvm.lifetime.end.p0(i64 8, ptr %10) #8
  call void @llvm.lifetime.end.p0(i64 1, ptr %9) #8
  ret i32 %203
}