; Function Attrs: null_pointer_is_valid sspstrong uwtable
define internal i32 @wkh_encoding_version(ptr noundef %0, ptr noundef %1, i32 noundef %2, ptr noundef %3) #1 {
  %5 = alloca ptr, align 8
  %6 = alloca i32, align 4
  %7 = alloca i32, align 4
  %8 = alloca i32, align 4
  call void @llvm.lifetime.start.p0(i64 8, ptr nonnull %5) #5
  %9 = add i32 %2, 1
  %10 = tail call zeroext i8 @tvb_get_uint8(ptr noundef %1, i32 noundef %9)
  call void @llvm.lifetime.start.p0(i64 4, ptr nonnull %6) #5
  call void @llvm.lifetime.start.p0(i64 4, ptr nonnull %7) #5
  call void @llvm.lifetime.start.p0(i64 4, ptr nonnull %8) #5
  %11 = load i32, ptr @ett_encoding_version, align 4
  %12 = call ptr @proto_tree_add_subtree(ptr noundef %0, ptr noundef %1, i32 noundef %2, i32 noundef 1, i32 noundef %11, ptr noundef nonnull %5, ptr noundef nonnull @.str.1173)
  %13 = load i32, ptr @hf_hdr_name_value, align 4
  %14 = call ptr @proto_tree_add_item(ptr noundef %12, i32 noundef %13, ptr noundef %1, i32 noundef %2, i32 noundef 1, i32 noundef 0)
  %.not = icmp sgt i8 %10, -1
  br i1 %.not, label %25, label %15

15:                                               ; preds = %4
  %16 = add i32 %2, 2
  %17 = and i8 %10, 127
  %18 = zext nneg i8 %17 to i32
  %19 = call ptr @wmem_packet_scope()
  %20 = lshr i32 %18, 4
  %21 = and i32 %18, 15
  %22 = call noalias ptr (ptr, ptr, ...) @wmem_strdup_printf(ptr noundef %19, ptr noundef nonnull @.str.845, i32 noundef %20, i32 noundef %21)
  %23 = load i32, ptr @hf_hdr_encoding_version, align 4
  %24 = call ptr @proto_tree_add_string(ptr noundef %0, i32 noundef %23, ptr noundef %1, i32 noundef %2, i32 noundef 2, ptr noundef %22)
  br label %.thread89

25:                                               ; preds = %4
  %26 = add nsw i8 %10, -32
  %or.cond = icmp ult i8 %26, -31
  br i1 %or.cond, label %27, label %35

27:                                               ; preds = %25
  %28 = call ptr @wmem_packet_scope()
  %29 = call ptr @tvb_get_stringz_enc(ptr noundef %28, ptr noundef %1, i32 noundef %9, ptr noundef nonnull %6, i32 noundef 0)
  %30 = load i32, ptr %6, align 4
  %31 = add i32 %30, %9
  %32 = load i32, ptr @hf_hdr_encoding_version, align 4
  %33 = sub i32 %31, %2
  %34 = call ptr @proto_tree_add_string(ptr noundef %0, i32 noundef %32, ptr noundef %1, i32 noundef %2, i32 noundef %33, ptr noundef %29)
  br label %.thread89

35:                                               ; preds = %25
  %36 = icmp eq i8 %10, 31
  br i1 %36, label %37, label %42

37:                                               ; preds = %35
  %38 = add i32 %2, 2
  %39 = call i32 @tvb_get_uintvar(ptr noundef %1, i32 noundef %38, ptr noundef nonnull %7, ptr noundef %3, ptr noundef nonnull @ei_wsp_oversized_uintvar)
  %40 = load i32, ptr %7, align 4
  %41 = add i32 %40, 1
  br label %45

42:                                               ; preds = %35
  %43 = call zeroext i8 @tvb_get_uint8(ptr noundef %1, i32 noundef %9)
  %44 = zext i8 %43 to i32
  br label %45

45:                                               ; preds = %42, %37
  %.sink = phi i32 [ %39, %37 ], [ %44, %42 ]
  %storemerge = phi i32 [ %41, %37 ], [ 1, %42 ]
  store i32 %storemerge, ptr %7, align 4
  %46 = add i32 %storemerge, %9
  %47 = add i32 %46, %.sink
  %48 = call zeroext i8 @tvb_get_uint8(ptr noundef %1, i32 noundef %46)
  %.not82 = icmp sgt i8 %48, -1
  br i1 %.not82, label %81, label %49

49:                                               ; preds = %45
  %50 = call ptr @wmem_packet_scope()
  %51 = and i8 %48, 127
  %52 = zext nneg i8 %51 to i32
  %53 = call noalias ptr (ptr, ptr, ...) @wmem_strdup_printf(ptr noundef %50, ptr noundef nonnull @.str.1174, i32 noundef %52)
  %54 = load i32, ptr @hf_hdr_encoding_version, align 4
  %55 = sub i32 %47, %2
  %56 = call ptr @proto_tree_add_string(ptr noundef %0, i32 noundef %54, ptr noundef %1, i32 noundef %2, i32 noundef %55, ptr noundef %53)
  %57 = add i32 %46, 1
  %58 = icmp ult i32 %57, %47
  br i1 %58, label %59, label %.thread89

59:                                               ; preds = %49
  %60 = call zeroext i8 @tvb_get_uint8(ptr noundef %1, i32 noundef %57)
  %.not83 = icmp sgt i8 %60, -1
  br i1 %.not83, label %68, label %61

61:                                               ; preds = %59
  store i32 1, ptr %8, align 4
  %62 = and i8 %60, 127
  %63 = zext nneg i8 %62 to i32
  %64 = call ptr @wmem_packet_scope()
  %65 = lshr i32 %63, 4
  %66 = and i32 %63, 15
  %67 = call noalias ptr (ptr, ptr, ...) @wmem_strdup_printf(ptr noundef %64, ptr noundef nonnull @.str.845, i32 noundef %65, i32 noundef %66)
  br label %80

68:                                               ; preds = %59
  %69 = call zeroext i8 @tvb_get_uint8(ptr noundef %1, i32 noundef %57)
  %70 = icmp eq i8 %69, 0
  br i1 %70, label %77, label %71

71:                                               ; preds = %68
  %72 = call zeroext i8 @tvb_get_uint8(ptr noundef %1, i32 noundef %57)
  %73 = icmp ugt i8 %72, 31
  br i1 %73, label %74, label %81

74:                                               ; preds = %71
  %75 = call zeroext i8 @tvb_get_uint8(ptr noundef %1, i32 noundef %57)
  %76 = icmp sgt i8 %75, -1
  br i1 %76, label %77, label %81

77:                                               ; preds = %74, %68
  %78 = call ptr @wmem_packet_scope()
  %79 = call ptr @tvb_get_stringz_enc(ptr noundef %78, ptr noundef %1, i32 noundef %57, ptr noundef nonnull %8, i32 noundef 0)
  br label %80

80:                                               ; preds = %61, %77
  %.0.ph = phi ptr [ %79, %77 ], [ %67, %61 ]
  call void (ptr, ptr, ...) @proto_item_append_text(ptr noundef %56, ptr noundef nonnull @.str.1175, ptr noundef %.0.ph)
  br label %.thread89

81:                                               ; preds = %74, %71, %45
  %82 = load ptr, ptr %5, align 8
  %83 = call ptr @expert_add_info(ptr noundef %3, ptr noundef %82, ptr noundef nonnull @ei_wsp_header_invalid_value)
  br label %.thread89

.thread89:                                        ; preds = %49, %80, %27, %15, %81
  %.07692 = phi i32 [ %47, %81 ], [ %47, %49 ], [ %47, %80 ], [ %31, %27 ], [ %16, %15 ]
  call void @llvm.lifetime.end.p0(i64 4, ptr nonnull %8) #5
  call void @llvm.lifetime.end.p0(i64 4, ptr nonnull %7) #5
  call void @llvm.lifetime.end.p0(i64 4, ptr nonnull %6) #5
  call void @llvm.lifetime.end.p0(i64 8, ptr nonnull %5) #5
  ret i32 %.07692
}